ARM GAS  C:\Users\amant\AppData\Local\Temp\ccvjwd7T.s 			page 1


   1              		.syntax unified
   2              		.cpu cortex-m0
   3              		.fpu softvfp
   4              		.eabi_attribute 20, 1
   5              		.eabi_attribute 21, 1
   6              		.eabi_attribute 23, 3
   7              		.eabi_attribute 24, 1
   8              		.eabi_attribute 25, 1
   9              		.eabi_attribute 26, 1
  10              		.eabi_attribute 30, 1
  11              		.eabi_attribute 34, 0
  12              		.eabi_attribute 18, 4
  13              		.thumb
  14              		.syntax unified
  15              		.file	"main.c"
  16              		.text
  17              	.Ltext0:
  18              		.cfi_sections	.debug_frame
  19              		.section	.text.handle_sleep_state,"ax",%progbits
  20              		.align	2
  21              		.global	handle_sleep_state
  22              		.code	16
  23              		.thumb_func
  24              		.type	handle_sleep_state, %function
  25              	handle_sleep_state:
  26              	.LFB33:
  27              		.file 1 "main.c"
   1:main.c        **** /* ========================================
   2:main.c        ****  *
   3:main.c        ****  * Copyright YOUR COMPANY, THE YEAR
   4:main.c        ****  * All Rights Reserved
   5:main.c        ****  * UNPUBLISHED, LICENSED SOFTWARE.
   6:main.c        ****  *
   7:main.c        ****  * CONFIDENTIAL AND PROPRIETARY INFORMATION
   8:main.c        ****  * WHICH IS THE PROPERTY OF your company.
   9:main.c        ****  *
  10:main.c        ****  * ========================================
  11:main.c        **** */
  12:main.c        **** #include "project.h"
  13:main.c        **** #include <stdio.h>
  14:main.c        **** 
  15:main.c        **** /* State Machine Transition Logic
  16:main.c        **** The first thing to note is that IDLE is also a state. The reason it is not in this table is because
  17:main.c        **** of each state are defined relative to IDLE. This is related to the second thing to note, which is t
  18:main.c        **** transition into one of these states (in the table below) if you are in IDLE. When buttons are click
  19:main.c        **** occur, and when the buttons are no longer being clicked, it will transition back to IDLE. The third
  20:main.c        **** that you can get to the PANIC state from any state based on the IMU readings.
  21:main.c        **** 
  22:main.c        **** Table layout explanation: The second column is representing how a transition from the state in that
  23:main.c        **** third column has the conditions for how a transition can occur from IDLE to the state in that row.
  24:main.c        **** 
  25:main.c        **** State       |      Transition to IDLE      |      Transition away from IDLE
  26:main.c        **** ---------------------------------------------------------------------------------------------------
  27:main.c        **** SLEEP       |  When any button is clicked  |    After a certain amount of time
  28:main.c        **** 
  29:main.c        **** RAISE_LEGS  |    Buttons not clicked       |    Left top and right top buttons clicked and we are i
  30:main.c        **** 
ARM GAS  C:\Users\amant\AppData\Local\Temp\ccvjwd7T.s 			page 2


  31:main.c        **** LOWER_LEGS  |    Buttons not clicked       |    Left top and right bottom buttons clicked and we ar
  32:main.c        **** 
  33:main.c        **** RAISE_SEAT  |    Buttons not clicked       |    Left bottom and right top buttons clicked and we ar
  34:main.c        **** 
  35:main.c        **** LOWER_SEAT  |    Buttons not clicked       |    Left bottom and right bottom buttons clicked and we
  36:main.c        **** 
  37:main.c        **** PANIC       |    IMU values read normal    |    IMU trigger (walker fell over)
  38:main.c        **** 
  39:main.c        **** */
  40:main.c        **** 
  41:main.c        **** /* I2C Clarification
  42:main.c        **** - Since we are using the I2C SCB (not EZI2C), the packet does not have to be manually parsed.
  43:main.c        **** - Instead, the following scheme is followed to interface with slave devices:
  44:main.c        ****     1. Initialize communication session
  45:main.c        ****     2. Request data (single or multiple bytes) from slave device
  46:main.c        ****     3. Transfer that data to a buffer for later use
  47:main.c        ****     4. End communication session
  48:main.c        ****     
  49:main.c        **** - For scanning the I2C bus for devices that may be there, a scan function can be used
  50:main.c        ****     - since the possible address range is from 0x08 to 0x77, a for loop should work
  51:main.c        ****     - iterate through each address and use the read function to try and read a single byte
  52:main.c        ****     - if a response is received, remember that address
  53:main.c        ****     - if not response is recevied after a few seconds, go to the next address
  54:main.c        **** 
  55:main.c        **** */
  56:main.c        **** 
  57:main.c        **** // This is the enumerate type that defines possible states of the walker
  58:main.c        **** typedef enum { SLEEP, IDLE, RAISE_LEGS, LOWER_LEGS, RAISE_SEAT, LOWER_SEAT, PANIC } State;
  59:main.c        **** 
  60:main.c        **** // watchdog timer or real time clock for sleep state to wake it back up based on watchdog interrupt
  61:main.c        **** void handle_sleep_state() {
  28              		.loc 1 61 0
  29              		.cfi_startproc
  30              		@ args = 0, pretend = 0, frame = 0
  31              		@ frame_needed = 0, uses_anonymous_args = 0
  32              		@ link register save eliminated.
  62:main.c        **** 
  63:main.c        **** }
  33              		.loc 1 63 0
  34              		@ sp needed
  35 0000 7047     		bx	lr
  36              		.cfi_endproc
  37              	.LFE33:
  38              		.size	handle_sleep_state, .-handle_sleep_state
  39 0002 C046     		.section	.text.handle_idle_state,"ax",%progbits
  40              		.align	2
  41              		.global	handle_idle_state
  42              		.code	16
  43              		.thumb_func
  44              		.type	handle_idle_state, %function
  45              	handle_idle_state:
  46              	.LFB34:
  64:main.c        **** 
  65:main.c        **** void handle_idle_state() {
  47              		.loc 1 65 0
  48              		.cfi_startproc
  49              		@ args = 0, pretend = 0, frame = 0
ARM GAS  C:\Users\amant\AppData\Local\Temp\ccvjwd7T.s 			page 3


  50              		@ frame_needed = 0, uses_anonymous_args = 0
  51              		@ link register save eliminated.
  66:main.c        **** 
  67:main.c        **** }
  52              		.loc 1 67 0
  53              		@ sp needed
  54 0000 7047     		bx	lr
  55              		.cfi_endproc
  56              	.LFE34:
  57              		.size	handle_idle_state, .-handle_idle_state
  58 0002 C046     		.section	.text.handle_raise_legs_state,"ax",%progbits
  59              		.align	2
  60              		.global	handle_raise_legs_state
  61              		.code	16
  62              		.thumb_func
  63              		.type	handle_raise_legs_state, %function
  64              	handle_raise_legs_state:
  65              	.LFB35:
  68:main.c        **** 
  69:main.c        **** void handle_raise_legs_state() {
  66              		.loc 1 69 0
  67              		.cfi_startproc
  68              		@ args = 0, pretend = 0, frame = 0
  69              		@ frame_needed = 0, uses_anonymous_args = 0
  70              		@ link register save eliminated.
  70:main.c        ****     
  71:main.c        **** }
  71              		.loc 1 71 0
  72              		@ sp needed
  73 0000 7047     		bx	lr
  74              		.cfi_endproc
  75              	.LFE35:
  76              		.size	handle_raise_legs_state, .-handle_raise_legs_state
  77 0002 C046     		.section	.text.handle_lower_legs_state,"ax",%progbits
  78              		.align	2
  79              		.global	handle_lower_legs_state
  80              		.code	16
  81              		.thumb_func
  82              		.type	handle_lower_legs_state, %function
  83              	handle_lower_legs_state:
  84              	.LFB36:
  72:main.c        **** 
  73:main.c        **** void handle_lower_legs_state() {
  85              		.loc 1 73 0
  86              		.cfi_startproc
  87              		@ args = 0, pretend = 0, frame = 0
  88              		@ frame_needed = 0, uses_anonymous_args = 0
  89              		@ link register save eliminated.
  74:main.c        **** 
  75:main.c        **** }
  90              		.loc 1 75 0
  91              		@ sp needed
  92 0000 7047     		bx	lr
  93              		.cfi_endproc
  94              	.LFE36:
  95              		.size	handle_lower_legs_state, .-handle_lower_legs_state
  96 0002 C046     		.section	.text.handle_raise_seat_state,"ax",%progbits
ARM GAS  C:\Users\amant\AppData\Local\Temp\ccvjwd7T.s 			page 4


  97              		.align	2
  98              		.global	handle_raise_seat_state
  99              		.code	16
 100              		.thumb_func
 101              		.type	handle_raise_seat_state, %function
 102              	handle_raise_seat_state:
 103              	.LFB37:
  76:main.c        **** 
  77:main.c        **** void handle_raise_seat_state() {
 104              		.loc 1 77 0
 105              		.cfi_startproc
 106              		@ args = 0, pretend = 0, frame = 0
 107              		@ frame_needed = 0, uses_anonymous_args = 0
 108              		@ link register save eliminated.
  78:main.c        **** 
  79:main.c        **** }
 109              		.loc 1 79 0
 110              		@ sp needed
 111 0000 7047     		bx	lr
 112              		.cfi_endproc
 113              	.LFE37:
 114              		.size	handle_raise_seat_state, .-handle_raise_seat_state
 115 0002 C046     		.section	.text.handle_lower_seat_state,"ax",%progbits
 116              		.align	2
 117              		.global	handle_lower_seat_state
 118              		.code	16
 119              		.thumb_func
 120              		.type	handle_lower_seat_state, %function
 121              	handle_lower_seat_state:
 122              	.LFB38:
  80:main.c        **** 
  81:main.c        **** void handle_lower_seat_state() {
 123              		.loc 1 81 0
 124              		.cfi_startproc
 125              		@ args = 0, pretend = 0, frame = 0
 126              		@ frame_needed = 0, uses_anonymous_args = 0
 127              		@ link register save eliminated.
  82:main.c        **** 
  83:main.c        **** }
 128              		.loc 1 83 0
 129              		@ sp needed
 130 0000 7047     		bx	lr
 131              		.cfi_endproc
 132              	.LFE38:
 133              		.size	handle_lower_seat_state, .-handle_lower_seat_state
 134 0002 C046     		.section	.text.handle_panic_state,"ax",%progbits
 135              		.align	2
 136              		.global	handle_panic_state
 137              		.code	16
 138              		.thumb_func
 139              		.type	handle_panic_state, %function
 140              	handle_panic_state:
 141              	.LFB39:
  84:main.c        **** 
  85:main.c        **** void handle_panic_state() {
 142              		.loc 1 85 0
 143              		.cfi_startproc
ARM GAS  C:\Users\amant\AppData\Local\Temp\ccvjwd7T.s 			page 5


 144              		@ args = 0, pretend = 0, frame = 0
 145              		@ frame_needed = 0, uses_anonymous_args = 0
 146              		@ link register save eliminated.
  86:main.c        **** 
  87:main.c        **** }
 147              		.loc 1 87 0
 148              		@ sp needed
 149 0000 7047     		bx	lr
 150              		.cfi_endproc
 151              	.LFE39:
 152              		.size	handle_panic_state, .-handle_panic_state
 153 0002 C046     		.section	.text.i2c_scan,"ax",%progbits
 154              		.align	2
 155              		.global	i2c_scan
 156              		.code	16
 157              		.thumb_func
 158              		.type	i2c_scan, %function
 159              	i2c_scan:
 160              	.LFB40:
  88:main.c        **** 
  89:main.c        **** void i2c_scan() {
 161              		.loc 1 89 0
 162              		.cfi_startproc
 163              		@ args = 0, pretend = 0, frame = 0
 164              		@ frame_needed = 0, uses_anonymous_args = 0
 165              		@ link register save eliminated.
  90:main.c        ****     
  91:main.c        **** }
 166              		.loc 1 91 0
 167              		@ sp needed
 168 0000 7047     		bx	lr
 169              		.cfi_endproc
 170              	.LFE40:
 171              		.size	i2c_scan, .-i2c_scan
 172 0002 C046     		.section	.text.are_you_there_imu,"ax",%progbits
 173              		.align	2
 174              		.global	are_you_there_imu
 175              		.code	16
 176              		.thumb_func
 177              		.type	are_you_there_imu, %function
 178              	are_you_there_imu:
 179              	.LFB41:
  92:main.c        **** 
  93:main.c        **** void are_you_there_imu() {
 180              		.loc 1 93 0
 181              		.cfi_startproc
 182              		@ args = 0, pretend = 0, frame = 16
 183              		@ frame_needed = 0, uses_anonymous_args = 0
 184 0000 10B5     		push	{r4, lr}
 185              		.cfi_def_cfa_offset 8
 186              		.cfi_offset 4, -8
 187              		.cfi_offset 14, -4
 188 0002 84B0     		sub	sp, sp, #16
 189              		.cfi_def_cfa_offset 24
  94:main.c        ****     uint32 errS;
  95:main.c        ****     uint8 rdBuff[6];
  96:main.c        ****     uint8 euler_angles = 0x1A;
ARM GAS  C:\Users\amant\AppData\Local\Temp\ccvjwd7T.s 			page 6


 190              		.loc 1 96 0
 191 0004 6B46     		mov	r3, sp
 192 0006 DC1D     		adds	r4, r3, #7
 193 0008 1A23     		movs	r3, #26
 194 000a 2370     		strb	r3, [r4]
  97:main.c        ****     I2C_0_Start();
 195              		.loc 1 97 0
 196 000c FFF7FEFF 		bl	I2C_0_Start
 197              	.LVL0:
  98:main.c        ****     
  99:main.c        ****     // when you give the write buffer function a register address, it does not treat it as a write 
 100:main.c        ****     // and instead as a regiter pointer update
 101:main.c        ****     I2C_0_I2CMasterWriteBuf(0x28, &euler_angles, 1, I2C_0_I2C_MODE_NO_STOP);
 198              		.loc 1 101 0
 199 0010 0223     		movs	r3, #2
 200 0012 0122     		movs	r2, #1
 201 0014 2100     		movs	r1, r4
 202 0016 2820     		movs	r0, #40
 203 0018 FFF7FEFF 		bl	I2C_0_I2CMasterWriteBuf
 204              	.LVL1:
 205              	.L10:
 102:main.c        ****     while (!(I2C_0_mstrStatus & I2C_0_I2C_MSTAT_WR_CMPLT));
 206              		.loc 1 102 0 discriminator 1
 207 001c 0F4B     		ldr	r3, .L14
 208 001e 1B88     		ldrh	r3, [r3]
 209 0020 9B07     		lsls	r3, r3, #30
 210 0022 FBD5     		bpl	.L10
 211              	.L11:
 103:main.c        ****     
 104:main.c        ****     // waits for I2C communication to complete
 105:main.c        ****     while((I2C_0_mstrStatus & I2C_0_I2C_MSTAT_RD_CMPLT) == 0);
 212              		.loc 1 105 0 discriminator 1
 213 0024 0D4B     		ldr	r3, .L14
 214 0026 1B88     		ldrh	r3, [r3]
 215 0028 DB07     		lsls	r3, r3, #31
 216 002a FBD5     		bpl	.L11
 106:main.c        ****     errS = I2C_0_I2CMasterReadBuf(0x28, rdBuff, 6, I2C_0_I2C_MODE_REPEAT_START);
 217              		.loc 1 106 0
 218 002c 0123     		movs	r3, #1
 219 002e 0622     		movs	r2, #6
 220 0030 02A9     		add	r1, sp, #8
 221 0032 2820     		movs	r0, #40
 222 0034 FFF7FEFF 		bl	I2C_0_I2CMasterReadBuf
 223              	.LVL2:
 107:main.c        ****     
 108:main.c        ****     
 109:main.c        ****     //UART_0_Start();
 110:main.c        ****     
 111:main.c        ****     //for (int i = 0; i < 6; i++) {
 112:main.c        ****     //    printf("0x%02X ", (uint8)rdBuff[i]);
 113:main.c        ****     //}
 114:main.c        ****     int16_t heading = (int16_t)((rdBuff[1] << 8) | rdBuff[0]) / 16;
 115:main.c        ****     
 116:main.c        ****     //if (heading > 180) {
 117:main.c        ****     //    LED_0_Write(~LED_0_Read());
 118:main.c        ****     //}
 119:main.c        ****     
ARM GAS  C:\Users\amant\AppData\Local\Temp\ccvjwd7T.s 			page 7


 120:main.c        ****     if (errS == I2C_0_I2C_MSTR_NO_ERROR) {
 224              		.loc 1 120 0
 225 0038 0028     		cmp	r0, #0
 226 003a 02D1     		bne	.L12
 121:main.c        ****         // No error, device is present
 122:main.c        ****         LED_0_Write(0);
 227              		.loc 1 122 0
 228 003c FFF7FEFF 		bl	LED_0_Write
 229              	.LVL3:
 230 0040 09E0     		b	.L9
 231              	.LVL4:
 232              	.L12:
 123:main.c        ****     } else {
 124:main.c        ****         // Error occurred, device is not responding
 125:main.c        ****         LED_0_Write(~LED_0_Read());
 233              		.loc 1 125 0
 234 0042 FFF7FEFF 		bl	LED_0_Read
 235              	.LVL5:
 236 0046 C043     		mvns	r0, r0
 237 0048 C0B2     		uxtb	r0, r0
 238 004a FFF7FEFF 		bl	LED_0_Write
 239              	.LVL6:
 126:main.c        ****         CyDelay(500);
 240              		.loc 1 126 0
 241 004e FA20     		movs	r0, #250
 242 0050 4000     		lsls	r0, r0, #1
 243 0052 FFF7FEFF 		bl	CyDelay
 244              	.LVL7:
 245              	.L9:
 127:main.c        ****     }
 128:main.c        ****     
 129:main.c        **** }
 246              		.loc 1 129 0
 247 0056 04B0     		add	sp, sp, #16
 248              		@ sp needed
 249 0058 10BD     		pop	{r4, pc}
 250              	.L15:
 251 005a C046     		.align	2
 252              	.L14:
 253 005c 00000000 		.word	I2C_0_mstrStatus
 254              		.cfi_endproc
 255              	.LFE41:
 256              		.size	are_you_there_imu, .-are_you_there_imu
 257              		.section	.text.main,"ax",%progbits
 258              		.align	2
 259              		.global	main
 260              		.code	16
 261              		.thumb_func
 262              		.type	main, %function
 263              	main:
 264              	.LFB42:
 130:main.c        **** 
 131:main.c        **** int main(void)
 132:main.c        **** {
 265              		.loc 1 132 0
 266              		.cfi_startproc
 267              		@ args = 0, pretend = 0, frame = 0
ARM GAS  C:\Users\amant\AppData\Local\Temp\ccvjwd7T.s 			page 8


 268              		@ frame_needed = 0, uses_anonymous_args = 0
 269 0000 10B5     		push	{r4, lr}
 270              		.cfi_def_cfa_offset 8
 271              		.cfi_offset 4, -8
 272              		.cfi_offset 14, -4
 273              	.LVL8:
 133:main.c        ****     State currentState = IDLE;
 134:main.c        ****     // I2C_0_Init();
 135:main.c        ****     // I2C_0_Enable();
 136:main.c        ****     
 137:main.c        ****     CyGlobalIntEnable; /* Enable global interrupts. */
 274              		.loc 1 137 0
 275              		.syntax divided
 276              	@ 137 "main.c" 1
 277 0002 62B6     		CPSIE   i
 278              	@ 0 "" 2
 279              		.thumb
 280              		.syntax unified
 281              	.L17:
 138:main.c        ****     
 139:main.c        ****     while(1) {  
 140:main.c        ****         switch (currentState) {
 141:main.c        ****             case SLEEP:
 142:main.c        ****                 handle_sleep_state();
 143:main.c        ****                 break;
 144:main.c        **** 
 145:main.c        ****             case IDLE:
 146:main.c        ****                 LED_0_Write(1);
 282              		.loc 1 146 0
 283 0004 0120     		movs	r0, #1
 284 0006 FFF7FEFF 		bl	LED_0_Write
 285              	.LVL9:
 147:main.c        ****     
 148:main.c        ****                 CyDelay(1000);
 286              		.loc 1 148 0
 287 000a FA20     		movs	r0, #250
 288 000c 8000     		lsls	r0, r0, #2
 289 000e FFF7FEFF 		bl	CyDelay
 290              	.LVL10:
 149:main.c        ****                 are_you_there_imu();
 291              		.loc 1 149 0
 292 0012 FFF7FEFF 		bl	are_you_there_imu
 293              	.LVL11:
 294 0016 F5E7     		b	.L17
 295              		.cfi_endproc
 296              	.LFE42:
 297              		.size	main, .-main
 298              		.text
 299              	.Letext0:
 300              		.file 2 "c:\\program files (x86)\\cypress\\psoc creator\\4.4\\psoc creator\\import\\gnu\\arm\\5.4.
 301              		.file 3 "c:\\program files (x86)\\cypress\\psoc creator\\4.4\\psoc creator\\import\\gnu\\arm\\5.4.
 302              		.file 4 "Generated_Source\\PSoC4/cytypes.h"
 303              		.file 5 "Generated_Source\\PSoC4/I2C_0.h"
 304              		.file 6 "Generated_Source\\PSoC4/I2C_0_I2C.h"
 305              		.file 7 "Generated_Source\\PSoC4/LED_0.h"
 306              		.file 8 "Generated_Source\\PSoC4/CyLib.h"
 307              		.file 9 "Generated_Source\\PSoC4/I2C_0_I2C_PVT.h"
ARM GAS  C:\Users\amant\AppData\Local\Temp\ccvjwd7T.s 			page 9

